(lp0
(dp1
S'rating'
p2
VR
p3
sS'director'
p4
NsS'movie title'
p5
VThe Matrix Revolutions
p6
sS'domestic_total_gross'
p7
I139313948
sS'runtime'
p8
I135
sS'release date'
p9
cdatetime
datetime
p10
(S'\x07\xd3\x0b\x05\x00\x00\x00\x00\x00\x00'
p11
tp12
Rp13
sa(dp14
g2
VPG
p15
sg4
Nsg5
VThe Sandlot
p16
sg7
I32434006
sg8
I101
sg9
g10
(S'\x07\xc9\x04\t\x00\x00\x00\x00\x00\x00'
p17
tp18
Rp19
sa(dp20
g2
VPG
p21
sg4
Nsg5
VThe Goonies
p22
sg7
I61389680
sg8
I90
sg9
g10
(S'\x07\xc1\x06\x07\x00\x00\x00\x00\x00\x00'
p23
tp24
Rp25
sa.